(itree
Tree
p0
(dp1
S'_Tree__root'
p2
(ibranch
Branch
p3
(dp4
S'name'
p5
S'root'
p6
sS'_issue'
p7
(lp8
(ibranch
Branch
p9
(dp10
g5
S'branch1'
p11
sg7
(lp12
sba(ibranch
Branch
p13
(dp14
g5
S'branch2'
p15
sg7
(lp16
sba(ileaf
Leaf
p17
(dp18
S'_path'
p19
S'./data/leaf1111'
p20
sg5
S'leaf1'
p21
sS'desc'
p22
S''
p23
sbasbsS'_Tree__path'
p24
(istack
Stack
p25
(dp26
bsb.